; Function Attrs: nounwind uwtable
define i32 @av_thread_message_queue_recv(ptr noundef %0, ptr noundef %1, i32 noundef %2) local_unnamed_addr #0 {
  %4 = getelementptr inbounds nuw i8, ptr %0, i64 8
  %5 = tail call i32 @pthread_mutex_lock(ptr noundef nonnull %4) #5
  %6 = getelementptr inbounds nuw i8, ptr %0, i64 148
  %7 = load i32, ptr %6, align 4, !tbaa !20
  %.not14.i = icmp eq i32 %7, 0
  br i1 %.not14.i, label %.lr.ph.i, label %.critedge.i

.lr.ph.i:                                         ; preds = %3
  %8 = and i32 %2, 1
  %.not11.i = icmp eq i32 %8, 0
  %9 = getelementptr inbounds nuw i8, ptr %0, i64 48
  br i1 %.not11.i, label %.lr.ph.split.us.i, label %.lr.ph.split.i

.lr.ph.split.us.i:                                ; preds = %.lr.ph.i, %12
  %10 = load ptr, ptr %0, align 8, !tbaa !4
  %11 = tail call i64 @av_fifo_can_read(ptr noundef %10) #5
  %.not10.us.i = icmp eq i64 %11, 0
  br i1 %.not10.us.i, label %12, label %.critedge.i

12:                                               ; preds = %.lr.ph.split.us.i
  %13 = tail call i32 @pthread_cond_wait(ptr noundef nonnull %9, ptr noundef nonnull %4) #5
  %14 = load i32, ptr %6, align 4, !tbaa !20
  %.not.us.i = icmp eq i32 %14, 0
  br i1 %.not.us.i, label %.lr.ph.split.us.i, label %.critedge.i, !llvm.loop !21

.lr.ph.split.i:                                   ; preds = %.lr.ph.i
  %15 = load ptr, ptr %0, align 8, !tbaa !4
  %16 = tail call i64 @av_fifo_can_read(ptr noundef %15) #5
  %.not10.i = icmp eq i64 %16, 0
  br i1 %.not10.i, label %av_thread_message_queue_recv_locked.exit, label %.critedge.i

.critedge.i:                                      ; preds = %12, %.lr.ph.split.us.i, %.lr.ph.split.i, %3
  %17 = load ptr, ptr %0, align 8, !tbaa !4
  %18 = tail call i64 @av_fifo_can_read(ptr noundef %17) #5
  %.not12.i = icmp eq i64 %18, 0
  br i1 %.not12.i, label %19, label %21

19:                                               ; preds = %.critedge.i
  %20 = load i32, ptr %6, align 4, !tbaa !20
  br label %av_thread_message_queue_recv_locked.exit

21:                                               ; preds = %.critedge.i
  %22 = load ptr, ptr %0, align 8, !tbaa !4
  %23 = tail call i32 @av_fifo_read(ptr noundef %22, ptr noundef %1, i64 noundef 1) #5
  %24 = getelementptr inbounds nuw i8, ptr %0, i64 96
  %25 = tail call i32 @pthread_cond_signal(ptr noundef nonnull %24) #5
  br label %av_thread_message_queue_recv_locked.exit

av_thread_message_queue_recv_locked.exit:         ; preds = %.lr.ph.split.i, %19, %21
  %.0.i = phi i32 [ 0, %21 ], [ %20, %19 ], [ -11, %.lr.ph.split.i ]
  %26 = tail call i32 @pthread_mutex_unlock(ptr noundef nonnull %4) #5
  ret i32 %.0.i
}